target datalayout = "e-m:e-p270:32:32-p271:32:32-p272:64:64-i64:64-i128:128-f80:128-n8:16:32:64-S128"
target triple = "x86_64-pc-linux-gnu"

@.str.47 = private unnamed_addr constant [3 x i8] c"\\\22\00", align 1
@.str.48 = private unnamed_addr constant [3 x i8] c"\\\\\00", align 1
@.str.49 = private unnamed_addr constant [3 x i8] c"\\b\00", align 1
@.str.50 = private unnamed_addr constant [3 x i8] c"\\f\00", align 1
@.str.51 = private unnamed_addr constant [3 x i8] c"\\n\00", align 1
@.str.52 = private unnamed_addr constant [3 x i8] c"\\r\00", align 1
@.str.53 = private unnamed_addr constant [3 x i8] c"\\t\00", align 1
@.str.54 = private unnamed_addr constant [3 x i8] c"%c\00", align 1
@.str.55 = private unnamed_addr constant [6 x i8] c"\\%03o\00", align 1

; Function Attrs: nounwind uwtable
define internal void @h5diff_print_char(i8 noundef signext %0) #0 {
  %2 = alloca i8, align 1
  store i8 %0, ptr %2, align 1
  %3 = load i8, ptr %2, align 1
  %4 = sext i8 %3 to i32
  switch i32 %4, label %12 [
    i32 34, label %5
    i32 92, label %6
    i32 8, label %7
    i32 12, label %8
    i32 10, label %9
    i32 13, label %10
    i32 9, label %11
  ]

5:                                                ; preds = %1
  call void (ptr, ...) @parallel_print(ptr noundef @.str.47)
  br label %30

6:                                                ; preds = %1
  call void (ptr, ...) @parallel_print(ptr noundef @.str.48)
  br label %30

7:                                                ; preds = %1
  call void (ptr, ...) @parallel_print(ptr noundef @.str.49)
  br label %30

8:                                                ; preds = %1
  call void (ptr, ...) @parallel_print(ptr noundef @.str.50)
  br label %30

9:                                                ; preds = %1
  call void (ptr, ...) @parallel_print(ptr noundef @.str.51)
  br label %30

10:                                               ; preds = %1
  call void (ptr, ...) @parallel_print(ptr noundef @.str.52)
  br label %30

11:                                               ; preds = %1
  call void (ptr, ...) @parallel_print(ptr noundef @.str.53)
  br label %30

12:                                               ; preds = %1
  %13 = call ptr @__ctype_b_loc() #14
  %14 = load ptr, ptr %13, align 8
  %15 = load i8, ptr %2, align 1
  %16 = sext i8 %15 to i32
  %17 = sext i32 %16 to i64
  %18 = getelementptr inbounds i16, ptr %14, i64 %17
  %19 = load i16, ptr %18, align 2
  %20 = zext i16 %19 to i32
  %21 = and i32 %20, 16384
  %22 = icmp ne i32 %21, 0
  br i1 %22, label %23, label %26

23:                                               ; preds = %12
  %24 = load i8, ptr %2, align 1
  %25 = sext i8 %24 to i32
  call void (ptr, ...) @parallel_print(ptr noundef @.str.54, i32 noundef %25)
  br label %29

26:                                               ; preds = %12
  %27 = load i8, ptr %2, align 1
  %28 = sext i8 %27 to i32
  call void (ptr, ...) @parallel_print(ptr noundef @.str.55, i32 noundef %28)
  br label %29

29:                                               ; preds = %26, %23
  br label %30

30:                                               ; preds = %29, %11, %10, %9, %8, %7, %6, %5
  ret void
}