; Function Attrs: nounwind uwtable
define internal fastcc void @h5diff_print_char(i8 noundef signext %0) unnamed_addr #0 {
  %2 = sext i8 %0 to i32
  switch i8 %0, label %10 [
    i8 34, label %3
    i8 92, label %4
    i8 8, label %5
    i8 12, label %6
    i8 10, label %7
    i8 13, label %8
    i8 9, label %9
  ]

3:                                                ; preds = %1
  tail call void (ptr, ...) @parallel_print(ptr noundef nonnull @.str.47) #14
  br label %19

4:                                                ; preds = %1
  tail call void (ptr, ...) @parallel_print(ptr noundef nonnull @.str.48) #14
  br label %19

5:                                                ; preds = %1
  tail call void (ptr, ...) @parallel_print(ptr noundef nonnull @.str.49) #14
  br label %19

6:                                                ; preds = %1
  tail call void (ptr, ...) @parallel_print(ptr noundef nonnull @.str.50) #14
  br label %19

7:                                                ; preds = %1
  tail call void (ptr, ...) @parallel_print(ptr noundef nonnull @.str.51) #14
  br label %19

8:                                                ; preds = %1
  tail call void (ptr, ...) @parallel_print(ptr noundef nonnull @.str.52) #14
  br label %19

9:                                                ; preds = %1
  tail call void (ptr, ...) @parallel_print(ptr noundef nonnull @.str.53) #14
  br label %19

10:                                               ; preds = %1
  %11 = tail call ptr @__ctype_b_loc() #19
  %12 = load ptr, ptr %11, align 8
  %13 = sext i8 %0 to i64
  %14 = getelementptr inbounds i16, ptr %12, i64 %13
  %15 = load i16, ptr %14, align 2
  %16 = and i16 %15, 16384
  %.not = icmp eq i16 %16, 0
  br i1 %.not, label %18, label %17

17:                                               ; preds = %10
  tail call void (ptr, ...) @parallel_print(ptr noundef nonnull @.str.54, i32 noundef %2) #14
  br label %19

18:                                               ; preds = %10
  tail call void (ptr, ...) @parallel_print(ptr noundef nonnull @.str.55, i32 noundef %2) #14
  br label %19

19:                                               ; preds = %17, %18, %9, %8, %7, %6, %5, %4, %3
  ret void
}